; Function Attrs: mustprogress uwtable
define zeroext range(i8 0, 2) i8 @lean_expr_quick_lt(ptr noundef %0, ptr noundef %1) local_unnamed_addr #0 personality ptr @__gxx_personality_v0 {
  %3 = alloca %"class.lean::expr", align 8
  %4 = alloca %"class.lean::expr", align 8
  call void @llvm.lifetime.start.p0(i64 8, ptr nonnull %3) #9
  store ptr %0, ptr %3, align 8, !tbaa !3
  %5 = ptrtoint ptr %0 to i64
  %6 = and i64 %5, 1
  %.not.i.i.i = icmp eq i64 %6, 0
  br i1 %.not.i.i.i, label %7, label %_ZN4lean4exprC2EP11lean_objectb.exit

7:                                                ; preds = %2
  %.val.i.i.i.i = load i32, ptr %0, align 4, !tbaa !30
  %8 = icmp sgt i32 %.val.i.i.i.i, 0
  br i1 %8, label %9, label %11, !prof !33

9:                                                ; preds = %7
  %10 = add nuw nsw i32 %.val.i.i.i.i, 1
  store i32 %10, ptr %0, align 4, !tbaa !30
  br label %_ZN4lean4exprC2EP11lean_objectb.exit

11:                                               ; preds = %7
  %.not.i.i.i.i = icmp eq i32 %.val.i.i.i.i, 0
  br i1 %.not.i.i.i.i, label %_ZN4lean4exprC2EP11lean_objectb.exit, label %12

12:                                               ; preds = %11
  tail call void @lean_inc_ref_cold(ptr noundef nonnull %0)
  br label %_ZN4lean4exprC2EP11lean_objectb.exit

_ZN4lean4exprC2EP11lean_objectb.exit:             ; preds = %2, %9, %11, %12
  call void @llvm.lifetime.start.p0(i64 8, ptr nonnull %4) #9
  store ptr %1, ptr %4, align 8, !tbaa !3
  %13 = ptrtoint ptr %1 to i64
  %14 = and i64 %13, 1
  %.not.i.i.i5 = icmp eq i64 %14, 0
  br i1 %.not.i.i.i5, label %15, label %_ZN4lean4exprC2EP11lean_objectb.exit8

15:                                               ; preds = %_ZN4lean4exprC2EP11lean_objectb.exit
  %.val.i.i.i.i6 = load i32, ptr %1, align 4, !tbaa !30
  %16 = icmp sgt i32 %.val.i.i.i.i6, 0
  br i1 %16, label %17, label %19, !prof !33

17:                                               ; preds = %15
  %18 = add nuw nsw i32 %.val.i.i.i.i6, 1
  store i32 %18, ptr %1, align 4, !tbaa !30
  br label %_ZN4lean4exprC2EP11lean_objectb.exit8

19:                                               ; preds = %15
  %.not.i.i.i.i7 = icmp eq i32 %.val.i.i.i.i6, 0
  br i1 %.not.i.i.i.i7, label %_ZN4lean4exprC2EP11lean_objectb.exit8, label %20

20:                                               ; preds = %19
  invoke void @lean_inc_ref_cold(ptr noundef nonnull %1)
          to label %_ZN4lean4exprC2EP11lean_objectb.exit8 unwind label %50

_ZN4lean4exprC2EP11lean_objectb.exit8:            ; preds = %19, %17, %_ZN4lean4exprC2EP11lean_objectb.exit, %20
  %21 = invoke noundef zeroext i1 @_ZN4lean5is_ltERKNS_4exprES2_bPKNS_9local_ctxE(ptr noundef nonnull align 8 dereferenceable(8) %3, ptr noundef nonnull align 8 dereferenceable(8) %4, i1 noundef zeroext true, ptr noundef null)
          to label %22 unwind label %52

22:                                               ; preds = %_ZN4lean4exprC2EP11lean_objectb.exit8
  %23 = load ptr, ptr %4, align 8, !tbaa !3
  %24 = ptrtoint ptr %23 to i64
  %25 = and i64 %24, 1
  %.not.i.i = icmp eq i64 %25, 0
  br i1 %.not.i.i, label %26, label %_ZN4lean10object_refD2Ev.exit

26:                                               ; preds = %22
  %27 = load i32, ptr %23, align 4, !tbaa !30
  %28 = icmp sgt i32 %27, 1
  br i1 %28, label %29, label %31, !prof !33

29:                                               ; preds = %26
  %30 = add nsw i32 %27, -1
  store i32 %30, ptr %23, align 4, !tbaa !30
  br label %_ZN4lean10object_refD2Ev.exit

31:                                               ; preds = %26
  %.not.i.i.i9 = icmp eq i32 %27, 0
  br i1 %.not.i.i.i9, label %_ZN4lean10object_refD2Ev.exit, label %32

32:                                               ; preds = %31
  invoke void @lean_dec_ref_cold(ptr noundef nonnull %23)
          to label %_ZN4lean10object_refD2Ev.exit unwind label %33

33:                                               ; preds = %32
  %34 = landingpad { ptr, i32 }
          catch ptr null
  %35 = extractvalue { ptr, i32 } %34, 0
  call void @__clang_call_terminate(ptr %35) #11
  unreachable

_ZN4lean10object_refD2Ev.exit:                    ; preds = %22, %29, %31, %32
  call void @llvm.lifetime.end.p0(i64 8, ptr nonnull %4) #9
  %36 = load ptr, ptr %3, align 8, !tbaa !3
  %37 = ptrtoint ptr %36 to i64
  %38 = and i64 %37, 1
  %.not.i.i10 = icmp eq i64 %38, 0
  br i1 %.not.i.i10, label %39, label %_ZN4lean10object_refD2Ev.exit12

39:                                               ; preds = %_ZN4lean10object_refD2Ev.exit
  %40 = load i32, ptr %36, align 4, !tbaa !30
  %41 = icmp sgt i32 %40, 1
  br i1 %41, label %42, label %44, !prof !33

42:                                               ; preds = %39
  %43 = add nsw i32 %40, -1
  store i32 %43, ptr %36, align 4, !tbaa !30
  br label %_ZN4lean10object_refD2Ev.exit12

44:                                               ; preds = %39
  %.not.i.i.i11 = icmp eq i32 %40, 0
  br i1 %.not.i.i.i11, label %_ZN4lean10object_refD2Ev.exit12, label %45

45:                                               ; preds = %44
  invoke void @lean_dec_ref_cold(ptr noundef nonnull %36)
          to label %_ZN4lean10object_refD2Ev.exit12 unwind label %46

46:                                               ; preds = %45
  %47 = landingpad { ptr, i32 }
          catch ptr null
  %48 = extractvalue { ptr, i32 } %47, 0
  call void @__clang_call_terminate(ptr %48) #11
  unreachable

_ZN4lean10object_refD2Ev.exit12:                  ; preds = %_ZN4lean10object_refD2Ev.exit, %42, %44, %45
  %49 = zext i1 %21 to i8
  call void @llvm.lifetime.end.p0(i64 8, ptr nonnull %3) #9
  ret i8 %49

50:                                               ; preds = %20
  %51 = landingpad { ptr, i32 }
          cleanup
  br label %54

52:                                               ; preds = %_ZN4lean4exprC2EP11lean_objectb.exit8
  %53 = landingpad { ptr, i32 }
          cleanup
  call void @_ZN4lean10object_refD2Ev(ptr noundef nonnull align 8 dereferenceable(8) %4) #9
  br label %54

54:                                               ; preds = %52, %50
  %.pn = phi { ptr, i32 } [ %53, %52 ], [ %51, %50 ]
  call void @llvm.lifetime.end.p0(i64 8, ptr nonnull %4) #9
  call void @_ZN4lean10object_refD2Ev(ptr noundef nonnull align 8 dereferenceable(8) %3) #9
  call void @llvm.lifetime.end.p0(i64 8, ptr nonnull %3) #9
  resume { ptr, i32 } %.pn
}